target datalayout = "e-m:e-p270:32:32-p271:32:32-p272:64:64-i64:64-i128:128-f80:128-n8:16:32:64-S128"
target triple = "x86_64-unknown-linux-gnu"

%"class.pbrt::Point2.100" = type { %"class.pbrt::Tuple2.101" }
%"class.pbrt::Tuple2.101" = type { float, float }
%"class.pbrt::DigitPermutation" = type { i32, i32, ptr }
%"class.pstd::vector.390" = type { %"class.pstd::pmr::polymorphic_allocator.391", ptr, i64, i64 }
%"class.pstd::pmr::polymorphic_allocator.391" = type { ptr }
%class.anon.555 = type { ptr, ptr, ptr }

@_ZN4pbrtL15OneMinusEpsilonE = internal constant float 0x3FEFFFFFE0000000, align 4
@_ZN4pbrt6PrimesE = external constant [1000 x i32], align 16

; Function Attrs: mustprogress nounwind uwtable
define linkonce_odr dso_local void @_ZN4pbrt6Tuple2INS_6Point2EfEC2Eff(ptr noundef nonnull align 4 dereferenceable(8) %this, float noundef %x, float noundef %y) unnamed_addr #2 comdat align 2 {
entry:
  %this.addr = alloca ptr, align 8
  %x.addr = alloca float, align 4
  %y.addr = alloca float, align 4
  store ptr %this, ptr %this.addr, align 8
  store float %x, ptr %x.addr, align 4
  store float %y, ptr %y.addr, align 4
  %this1 = load ptr, ptr %this.addr, align 8
  %x2 = getelementptr inbounds %"class.pbrt::Tuple2.101", ptr %this1, i32 0, i32 0
  %0 = load float, ptr %x.addr, align 4
  store float %0, ptr %x2, align 4
  %y3 = getelementptr inbounds %"class.pbrt::Tuple2.101", ptr %this1, i32 0, i32 1
  %1 = load float, ptr %y.addr, align 4
  store float %1, ptr %y3, align 4
  br label %do.body

do.body:                                          ; preds = %entry
  br label %do.end

do.end:                                           ; preds = %do.body
  ret void
}

; Function Attrs: mustprogress nounwind uwtable
define linkonce_odr dso_local noundef nonnull align 4 dereferenceable(4) ptr @_ZSt3minIfERKT_S2_S2_(ptr noundef nonnull align 4 dereferenceable(4) %__a, ptr noundef nonnull align 4 dereferenceable(4) %__b) #2 comdat {
entry:
  %retval = alloca ptr, align 8
  %__a.addr = alloca ptr, align 8
  %__b.addr = alloca ptr, align 8
  store ptr %__a, ptr %__a.addr, align 8
  store ptr %__b, ptr %__b.addr, align 8
  %0 = load ptr, ptr %__b.addr, align 8
  %1 = load float, ptr %0, align 4
  %2 = load ptr, ptr %__a.addr, align 8
  %3 = load float, ptr %2, align 4
  %cmp = fcmp olt float %1, %3
  br i1 %cmp, label %if.then, label %if.end

if.then:                                          ; preds = %entry
  %4 = load ptr, ptr %__b.addr, align 8
  store ptr %4, ptr %retval, align 8
  br label %return

if.end:                                           ; preds = %entry
  %5 = load ptr, ptr %__a.addr, align 8
  store ptr %5, ptr %retval, align 8
  br label %return

return:                                           ; preds = %if.end, %if.then
  %6 = load ptr, ptr %retval, align 8
  ret ptr %6
}

; Function Attrs: mustprogress nounwind uwtable
define linkonce_odr dso_local noundef i32 @_ZNK4pbrt16DigitPermutation7PermuteEii(ptr noundef nonnull align 8 dereferenceable(16) %this, i32 noundef %digitIndex, i32 noundef %digitValue) #2 comdat align 2 {
entry:
  %this.addr = alloca ptr, align 8
  %digitIndex.addr = alloca i32, align 4
  %digitValue.addr = alloca i32, align 4
  store ptr %this, ptr %this.addr, align 8
  store i32 %digitIndex, ptr %digitIndex.addr, align 4
  store i32 %digitValue, ptr %digitValue.addr, align 4
  %this1 = load ptr, ptr %this.addr, align 8
  br label %do.body

do.body:                                          ; preds = %entry
  br label %do.end

do.end:                                           ; preds = %do.body
  br label %do.body2

do.body2:                                         ; preds = %do.end
  br label %do.end3

do.end3:                                          ; preds = %do.body2
  %permutations = getelementptr inbounds %"class.pbrt::DigitPermutation", ptr %this1, i32 0, i32 2
  %0 = load ptr, ptr %permutations, align 8
  %1 = load i32, ptr %digitIndex.addr, align 4
  %base = getelementptr inbounds %"class.pbrt::DigitPermutation", ptr %this1, i32 0, i32 0
  %2 = load i32, ptr %base, align 8
  %mul = mul nsw i32 %1, %2
  %3 = load i32, ptr %digitValue.addr, align 4
  %add = add nsw i32 %mul, %3
  %idxprom = sext i32 %add to i64
  %arrayidx = getelementptr inbounds i16, ptr %0, i64 %idxprom
  %4 = load i16, ptr %arrayidx, align 2
  %conv = zext i16 %4 to i32
  ret i32 %conv
}

; Function Attrs: mustprogress uwtable
define linkonce_odr dso_local void @_ZN4pbrt6Point2IfEC2Eff(ptr noundef nonnull align 4 dereferenceable(8) %this, float noundef %x, float noundef %y) unnamed_addr #1 comdat align 2 {
entry:
  %this.addr = alloca ptr, align 8
  %x.addr = alloca float, align 4
  %y.addr = alloca float, align 4
  store ptr %this, ptr %this.addr, align 8
  store float %x, ptr %x.addr, align 4
  store float %y, ptr %y.addr, align 4
  %this1 = load ptr, ptr %this.addr, align 8
  %0 = load float, ptr %x.addr, align 4
  %1 = load float, ptr %y.addr, align 4
  call void @_ZN4pbrt6Tuple2INS_6Point2EfEC2Eff(ptr noundef nonnull align 4 dereferenceable(8) %this1, float noundef %0, float noundef %1)
  ret void
}

; Function Attrs: mustprogress uwtable
define linkonce_odr dso_local noundef float @_ZN4pbrt23ScrambledRadicalInverseEimRKNS_16DigitPermutationE(i32 noundef %baseIndex, i64 noundef %a, ptr noundef nonnull align 8 dereferenceable(16) %perm) #1 comdat {
entry:
  %baseIndex.addr = alloca i32, align 4
  %a.addr = alloca i64, align 8
  %perm.addr = alloca ptr, align 8
  %base = alloca i32, align 4
  %limit = alloca i64, align 8
  %invBase = alloca float, align 4
  %invBaseM = alloca float, align 4
  %reversedDigits = alloca i64, align 8
  %digitIndex = alloca i32, align 4
  %next = alloca i64, align 8
  %digitValue = alloca i32, align 4
  %ref.tmp = alloca float, align 4
  store i32 %baseIndex, ptr %baseIndex.addr, align 4
  store i64 %a, ptr %a.addr, align 8
  store ptr %perm, ptr %perm.addr, align 8
  %0 = load i32, ptr %baseIndex.addr, align 4
  %idxprom = sext i32 %0 to i64
  %arrayidx = getelementptr inbounds [1000 x i32], ptr @_ZN4pbrt6PrimesE, i64 0, i64 %idxprom
  %1 = load i32, ptr %arrayidx, align 4
  store i32 %1, ptr %base, align 4
  %2 = load i32, ptr %base, align 4
  %conv = zext i32 %2 to i64
  %div = udiv i64 -1, %conv
  %3 = load i32, ptr %base, align 4
  %conv1 = zext i32 %3 to i64
  %sub = sub i64 %div, %conv1
  store i64 %sub, ptr %limit, align 8
  %4 = load i32, ptr %base, align 4
  %conv2 = uitofp i32 %4 to float
  %div3 = fdiv float 1.000000e+00, %conv2
  store float %div3, ptr %invBase, align 4
  store float 1.000000e+00, ptr %invBaseM, align 4
  store i64 0, ptr %reversedDigits, align 8
  store i32 0, ptr %digitIndex, align 4
  br label %while.cond

while.cond:                                       ; preds = %while.body, %entry
  %5 = load i32, ptr %base, align 4
  %sub4 = sub i32 %5, 1
  %conv5 = uitofp i32 %sub4 to float
  %6 = load float, ptr %invBaseM, align 4
  %mul = fmul float %conv5, %6
  %sub6 = fsub float 1.000000e+00, %mul
  %cmp = fcmp olt float %sub6, 1.000000e+00
  br i1 %cmp, label %land.rhs, label %land.end

land.rhs:                                         ; preds = %while.cond
  %7 = load i64, ptr %reversedDigits, align 8
  %8 = load i64, ptr %limit, align 8
  %cmp7 = icmp ult i64 %7, %8
  br label %land.end

land.end:                                         ; preds = %land.rhs, %while.cond
  %9 = phi i1 [ false, %while.cond ], [ %cmp7, %land.rhs ]
  br i1 %9, label %while.body, label %while.end

while.body:                                       ; preds = %land.end
  %10 = load i64, ptr %a.addr, align 8
  %11 = load i32, ptr %base, align 4
  %conv8 = zext i32 %11 to i64
  %div9 = udiv i64 %10, %conv8
  store i64 %div9, ptr %next, align 8
  %12 = load i64, ptr %a.addr, align 8
  %13 = load i64, ptr %next, align 8
  %14 = load i32, ptr %base, align 4
  %conv10 = zext i32 %14 to i64
  %mul11 = mul i64 %13, %conv10
  %sub12 = sub i64 %12, %mul11
  %conv13 = trunc i64 %sub12 to i32
  store i32 %conv13, ptr %digitValue, align 4
  %15 = load i64, ptr %reversedDigits, align 8
  %16 = load i32, ptr %base, align 4
  %conv14 = zext i32 %16 to i64
  %mul15 = mul i64 %15, %conv14
  %17 = load ptr, ptr %perm.addr, align 8
  %18 = load i32, ptr %digitIndex, align 4
  %19 = load i32, ptr %digitValue, align 4
  %call = call noundef i32 @_ZNK4pbrt16DigitPermutation7PermuteEii(ptr noundef nonnull align 8 dereferenceable(16) %17, i32 noundef %18, i32 noundef %19)
  %conv16 = sext i32 %call to i64
  %add = add i64 %mul15, %conv16
  store i64 %add, ptr %reversedDigits, align 8
  %20 = load float, ptr %invBase, align 4
  %21 = load float, ptr %invBaseM, align 4
  %mul17 = fmul float %21, %20
  store float %mul17, ptr %invBaseM, align 4
  %22 = load i32, ptr %digitIndex, align 4
  %inc = add nsw i32 %22, 1
  store i32 %inc, ptr %digitIndex, align 4
  %23 = load i64, ptr %next, align 8
  store i64 %23, ptr %a.addr, align 8
  br label %while.cond, !llvm.loop !95

while.end:                                        ; preds = %land.end
  %24 = load float, ptr %invBaseM, align 4
  %25 = load i64, ptr %reversedDigits, align 8
  %conv18 = uitofp i64 %25 to float
  %mul19 = fmul float %24, %conv18
  store float %mul19, ptr %ref.tmp, align 4
  %call20 = call noundef nonnull align 4 dereferenceable(4) ptr @_ZSt3minIfERKT_S2_S2_(ptr noundef nonnull align 4 dereferenceable(4) %ref.tmp, ptr noundef nonnull align 4 dereferenceable(4) @_ZN4pbrtL15OneMinusEpsilonE)
  %26 = load float, ptr %call20, align 4
  ret float %26
}

; Function Attrs: mustprogress nounwind uwtable
define linkonce_odr dso_local noundef nonnull align 8 dereferenceable(16) ptr @_ZN4pstd6vectorIN4pbrt16DigitPermutationENS_3pmr21polymorphic_allocatorIS2_EEEixEm(ptr noundef nonnull align 8 dereferenceable(32) %this, i64 noundef %index) #2 comdat align 2 {
entry:
  %this.addr = alloca ptr, align 8
  %index.addr = alloca i64, align 8
  store ptr %this, ptr %this.addr, align 8
  store i64 %index, ptr %index.addr, align 8
  %this1 = load ptr, ptr %this.addr, align 8
  br label %do.body

do.body:                                          ; preds = %entry
  br label %do.end

do.end:                                           ; preds = %do.body
  %ptr = getelementptr inbounds %"class.pstd::vector.390", ptr %this1, i32 0, i32 1
  %0 = load ptr, ptr %ptr, align 8
  %1 = load i64, ptr %index.addr, align 8
  %arrayidx = getelementptr inbounds %"class.pbrt::DigitPermutation", ptr %0, i64 %1
  ret ptr %arrayidx
}

; Function Attrs: mustprogress uwtable
define internal <2 x float> @"_ZZZN4pbrt14SPPMIntegrator6RenderEvENK3$_6clEllENKUlvE0_clEv"(ptr noundef nonnull align 8 dereferenceable(24) %this) #8 align 2 {
entry:
  %retval = alloca %"class.pbrt::Point2.100", align 4
  %this.addr = alloca ptr, align 8
  store ptr %this, ptr %this.addr, align 8
  %this1 = load ptr, ptr %this.addr, align 8
  %0 = getelementptr inbounds %class.anon.555, ptr %this1, i32 0, i32 0
  %1 = load ptr, ptr %0, align 8
  %2 = load i32, ptr %1, align 4
  %3 = getelementptr inbounds %class.anon.555, ptr %this1, i32 0, i32 1
  %4 = load ptr, ptr %3, align 8
  %5 = load i64, ptr %4, align 8
  %6 = getelementptr inbounds %class.anon.555, ptr %this1, i32 0, i32 2
  %7 = load ptr, ptr %6, align 8
  %8 = load ptr, ptr %7, align 8
  %9 = getelementptr inbounds %class.anon.555, ptr %this1, i32 0, i32 0
  %10 = load ptr, ptr %9, align 8
  %11 = load i32, ptr %10, align 4
  %conv = sext i32 %11 to i64
  %call = call noundef nonnull align 8 dereferenceable(16) ptr @_ZN4pstd6vectorIN4pbrt16DigitPermutationENS_3pmr21polymorphic_allocatorIS2_EEEixEm(ptr noundef nonnull align 8 dereferenceable(32) %8, i64 noundef %conv)
  %call2 = call noundef float @_ZN4pbrt23ScrambledRadicalInverseEimRKNS_16DigitPermutationE(i32 noundef %2, i64 noundef %5, ptr noundef nonnull align 8 dereferenceable(16) %call)
  %12 = getelementptr inbounds %class.anon.555, ptr %this1, i32 0, i32 0
  %13 = load ptr, ptr %12, align 8
  %14 = load i32, ptr %13, align 4
  %add = add nsw i32 %14, 1
  %15 = getelementptr inbounds %class.anon.555, ptr %this1, i32 0, i32 1
  %16 = load ptr, ptr %15, align 8
  %17 = load i64, ptr %16, align 8
  %18 = getelementptr inbounds %class.anon.555, ptr %this1, i32 0, i32 2
  %19 = load ptr, ptr %18, align 8
  %20 = load ptr, ptr %19, align 8
  %21 = getelementptr inbounds %class.anon.555, ptr %this1, i32 0, i32 0
  %22 = load ptr, ptr %21, align 8
  %23 = load i32, ptr %22, align 4
  %add3 = add nsw i32 %23, 1
  %conv4 = sext i32 %add3 to i64
  %call5 = call noundef nonnull align 8 dereferenceable(16) ptr @_ZN4pstd6vectorIN4pbrt16DigitPermutationENS_3pmr21polymorphic_allocatorIS2_EEEixEm(ptr noundef nonnull align 8 dereferenceable(32) %20, i64 noundef %conv4)
  %call6 = call noundef float @_ZN4pbrt23ScrambledRadicalInverseEimRKNS_16DigitPermutationE(i32 noundef %add, i64 noundef %17, ptr noundef nonnull align 8 dereferenceable(16) %call5)
  call void @_ZN4pbrt6Point2IfEC2Eff(ptr noundef nonnull align 4 dereferenceable(8) %retval, float noundef %call2, float noundef %call6)
  %24 = getelementptr inbounds %class.anon.555, ptr %this1, i32 0, i32 0
  %25 = load ptr, ptr %24, align 8
  %26 = load i32, ptr %25, align 4
  %add7 = add nsw i32 %26, 2
  store i32 %add7, ptr %25, align 4
  %coerce.dive = getelementptr inbounds %"class.pbrt::Point2.100", ptr %retval, i32 0, i32 0
  %27 = load <2 x float>, ptr %coerce.dive, align 4
  ret <2 x float> %27
}