; Function Attrs: mustprogress nofree norecurse nosync nounwind memory(readwrite, inaccessiblemem: none) uwtable
define internal fastcc <2 x float> @"_ZZZN4pbrt14SPPMIntegrator6RenderEvENK3$_6clEllENKUlvE0_clEv"(ptr nocapture noundef nonnull readonly align 8 dereferenceable(24) %this) unnamed_addr #25 align 2 {
entry:
  %0 = load ptr, ptr %this, align 8
  %1 = load i32, ptr %0, align 4
  %2 = getelementptr inbounds i8, ptr %this, i64 8
  %3 = load ptr, ptr %2, align 8
  %4 = load i64, ptr %3, align 8
  %5 = getelementptr inbounds i8, ptr %this, i64 16
  %6 = load ptr, ptr %5, align 8
  %7 = load ptr, ptr %6, align 8
  %conv = sext i32 %1 to i64
  %ptr.i = getelementptr inbounds i8, ptr %7, i64 8
  %8 = load ptr, ptr %ptr.i, align 8
  %arrayidx.i1 = getelementptr inbounds [1000 x i32], ptr @_ZN4pbrt6PrimesE, i64 0, i64 %conv
  %9 = load i32, ptr %arrayidx.i1, align 4
  %conv.i = zext i32 %9 to i64
  %div.i = udiv i64 -1, %conv.i
  %sub.i = sub nuw i64 %div.i, %conv.i
  %conv2.i = uitofp i32 %9 to float
  %div3.i = fdiv float 1.000000e+00, %conv2.i
  %sub4.i = add i32 %9, -1
  %conv5.i = uitofp i32 %sub4.i to float
  %sub614.i = fsub float 1.000000e+00, %conv5.i
  %cmp15.i = fcmp olt float %sub614.i, 1.000000e+00
  br i1 %cmp15.i, label %while.body.lr.ph.i, label %_ZN4pbrt23ScrambledRadicalInverseEimRKNS_16DigitPermutationE.exit

while.body.lr.ph.i:                               ; preds = %entry
  %arrayidx.i = getelementptr inbounds %"class.pbrt::DigitPermutation", ptr %8, i64 %conv
  %permutations.i.i = getelementptr inbounds i8, ptr %arrayidx.i, i64 8
  %10 = load ptr, ptr %permutations.i.i, align 8
  %11 = load i32, ptr %arrayidx.i, align 8
  br label %while.body.i

while.body.i:                                     ; preds = %while.body.i, %while.body.lr.ph.i
  %a.addr.020.i = phi i64 [ %4, %while.body.lr.ph.i ], [ %div9.i, %while.body.i ]
  %invBaseM.019.i = phi float [ 1.000000e+00, %while.body.lr.ph.i ], [ %mul17.i, %while.body.i ]
  %digitIndex.018.i = phi i32 [ 0, %while.body.lr.ph.i ], [ %inc.i, %while.body.i ]
  %reversedDigits.017.i = phi i64 [ 0, %while.body.lr.ph.i ], [ %add.i, %while.body.i ]
  %div9.i = udiv i64 %a.addr.020.i, %conv.i
  %mul11.i = mul i64 %div9.i, %conv.i
  %sub12.i.recomposed = urem i64 %a.addr.020.i, %conv.i
  %conv13.i = trunc i64 %sub12.i.recomposed to i32
  %mul15.i = mul i64 %reversedDigits.017.i, %conv.i
  %mul.i.i = mul nsw i32 %digitIndex.018.i, %11
  %add.i.i = add nsw i32 %mul.i.i, %conv13.i
  %idxprom.i.i = sext i32 %add.i.i to i64
  %arrayidx.i.i = getelementptr inbounds i16, ptr %10, i64 %idxprom.i.i
  %12 = load i16, ptr %arrayidx.i.i, align 2
  %conv16.i = zext i16 %12 to i64
  %add.i = add i64 %mul15.i, %conv16.i
  %mul17.i = fmul float %div3.i, %invBaseM.019.i
  %inc.i = add nuw nsw i32 %digitIndex.018.i, 1
  %mul.i = fmul float %mul17.i, %conv5.i
  %sub6.i = fsub float 1.000000e+00, %mul.i
  %cmp.i = fcmp olt float %sub6.i, 1.000000e+00
  %cmp7.i = icmp ult i64 %add.i, %sub.i
  %13 = select i1 %cmp.i, i1 %cmp7.i, i1 false
  br i1 %13, label %while.body.i, label %while.end.loopexit.i, !llvm.loop !681

while.end.loopexit.i:                             ; preds = %while.body.i
  %14 = uitofp i64 %add.i to float
  %15 = fmul float %mul17.i, %14
  br label %_ZN4pbrt23ScrambledRadicalInverseEimRKNS_16DigitPermutationE.exit

_ZN4pbrt23ScrambledRadicalInverseEimRKNS_16DigitPermutationE.exit: ; preds = %entry, %while.end.loopexit.i
  %mul19.i = phi float [ 0.000000e+00, %entry ], [ %15, %while.end.loopexit.i ]
  %add = add nsw i32 %1, 1
  %conv4 = sext i32 %add to i64
  %arrayidx.i5 = getelementptr inbounds [1000 x i32], ptr @_ZN4pbrt6PrimesE, i64 0, i64 %conv4
  %16 = load i32, ptr %arrayidx.i5, align 4
  %conv.i6 = zext i32 %16 to i64
  %div.i7 = udiv i64 -1, %conv.i6
  %sub.i8 = sub nuw i64 %div.i7, %conv.i6
  %conv2.i9 = uitofp i32 %16 to float
  %div3.i10 = fdiv float 1.000000e+00, %conv2.i9
  %sub4.i11 = add i32 %16, -1
  %conv5.i12 = uitofp i32 %sub4.i11 to float
  %sub614.i13 = fsub float 1.000000e+00, %conv5.i12
  %cmp15.i14 = fcmp olt float %sub614.i13, 1.000000e+00
  br i1 %cmp15.i14, label %while.body.lr.ph.i18, label %_ZN4pbrt23ScrambledRadicalInverseEimRKNS_16DigitPermutationE.exit43

while.body.lr.ph.i18:                             ; preds = %_ZN4pbrt23ScrambledRadicalInverseEimRKNS_16DigitPermutationE.exit
  %arrayidx.i3 = getelementptr inbounds %"class.pbrt::DigitPermutation", ptr %8, i64 %conv4
  %permutations.i.i19 = getelementptr inbounds i8, ptr %arrayidx.i3, i64 8
  %17 = load ptr, ptr %permutations.i.i19, align 8
  %18 = load i32, ptr %arrayidx.i3, align 8
  br label %while.body.i20

while.body.i20:                                   ; preds = %while.body.i20, %while.body.lr.ph.i18
  %a.addr.020.i21 = phi i64 [ %4, %while.body.lr.ph.i18 ], [ %div9.i25, %while.body.i20 ]
  %invBaseM.019.i22 = phi float [ 1.000000e+00, %while.body.lr.ph.i18 ], [ %mul17.i36, %while.body.i20 ]
  %digitIndex.018.i23 = phi i32 [ 0, %while.body.lr.ph.i18 ], [ %inc.i37, %while.body.i20 ]
  %reversedDigits.017.i24 = phi i64 [ 0, %while.body.lr.ph.i18 ], [ %add.i35, %while.body.i20 ]
  %div9.i25 = udiv i64 %a.addr.020.i21, %conv.i6
  %mul11.i26 = mul i64 %div9.i25, %conv.i6
  %sub12.i27.recomposed = urem i64 %a.addr.020.i21, %conv.i6
  %conv13.i28 = trunc i64 %sub12.i27.recomposed to i32
  %mul15.i29 = mul i64 %reversedDigits.017.i24, %conv.i6
  %mul.i.i30 = mul nsw i32 %digitIndex.018.i23, %18
  %add.i.i31 = add nsw i32 %mul.i.i30, %conv13.i28
  %idxprom.i.i32 = sext i32 %add.i.i31 to i64
  %arrayidx.i.i33 = getelementptr inbounds i16, ptr %17, i64 %idxprom.i.i32
  %19 = load i16, ptr %arrayidx.i.i33, align 2
  %conv16.i34 = zext i16 %19 to i64
  %add.i35 = add i64 %mul15.i29, %conv16.i34
  %mul17.i36 = fmul float %div3.i10, %invBaseM.019.i22
  %inc.i37 = add nuw nsw i32 %digitIndex.018.i23, 1
  %mul.i38 = fmul float %mul17.i36, %conv5.i12
  %sub6.i39 = fsub float 1.000000e+00, %mul.i38
  %cmp.i40 = fcmp olt float %sub6.i39, 1.000000e+00
  %cmp7.i41 = icmp ult i64 %add.i35, %sub.i8
  %20 = select i1 %cmp.i40, i1 %cmp7.i41, i1 false
  br i1 %20, label %while.body.i20, label %while.end.loopexit.i42, !llvm.loop !681

while.end.loopexit.i42:                           ; preds = %while.body.i20
  %21 = uitofp i64 %add.i35 to float
  %22 = fmul float %mul17.i36, %21
  br label %_ZN4pbrt23ScrambledRadicalInverseEimRKNS_16DigitPermutationE.exit43

_ZN4pbrt23ScrambledRadicalInverseEimRKNS_16DigitPermutationE.exit43: ; preds = %_ZN4pbrt23ScrambledRadicalInverseEimRKNS_16DigitPermutationE.exit, %while.end.loopexit.i42
  %mul19.i15 = phi float [ 0.000000e+00, %_ZN4pbrt23ScrambledRadicalInverseEimRKNS_16DigitPermutationE.exit ], [ %22, %while.end.loopexit.i42 ]
  %23 = insertelement <2 x float> poison, float %mul19.i, i64 0
  %24 = insertelement <2 x float> %23, float %mul19.i15, i64 1
  %25 = fcmp ogt <2 x float> %24, <float 0x3FEFFFFFE0000000, float 0x3FEFFFFFE0000000>
  %26 = select <2 x i1> %25, <2 x float> <float 0x3FEFFFFFE0000000, float 0x3FEFFFFFE0000000>, <2 x float> %24
  %add7 = add nsw i32 %1, 2
  store i32 %add7, ptr %0, align 4
  ret <2 x float> %26
}